; Function Attrs: mustprogress nounwind uwtable
define internal fastcc void @_ZN12_GLOBAL__N_111StmtPrinter21VisitPackIndexingExprEPN5clang16PackIndexingExprE(ptr nonnull %.0.val, ptr noundef readonly captures(none) %0) unnamed_addr #0 align 2 {
  %2 = getelementptr inbounds nuw i8, ptr %0, i64 24
  %3 = load ptr, ptr %2, align 8
  %4 = tail call noundef nonnull align 8 dereferenceable(48) ptr @_ZN4llvm11raw_ostreamlsEPKv(ptr noundef nonnull align 8 dereferenceable(48) %.0.val, ptr noundef %3) #19
  %5 = getelementptr inbounds nuw i8, ptr %4, i64 24
  %6 = load ptr, ptr %5, align 8
  %7 = getelementptr inbounds nuw i8, ptr %4, i64 32
  %8 = load ptr, ptr %7, align 8
  %9 = ptrtoint ptr %6 to i64
  %10 = ptrtoint ptr %8 to i64
  %11 = sub i64 %9, %10
  %12 = icmp ult i64 %11, 4
  br i1 %12, label %13, label %15

13:                                               ; preds = %1
  %14 = tail call noundef nonnull align 8 dereferenceable(48) ptr @_ZN4llvm11raw_ostream5writeEPKcm(ptr noundef nonnull align 8 dereferenceable(48) %4, ptr noundef nonnull @.str.47, i64 noundef 4) #19
  br label %_ZN4llvm11raw_ostreamlsEPKc.exit

15:                                               ; preds = %1
  store i32 1529753134, ptr %8, align 1
  %16 = load ptr, ptr %7, align 8
  %17 = getelementptr inbounds nuw i8, ptr %16, i64 4
  store ptr %17, ptr %7, align 8
  br label %_ZN4llvm11raw_ostreamlsEPKc.exit

_ZN4llvm11raw_ostreamlsEPKc.exit:                 ; preds = %13, %15
  %.0.i.i = phi ptr [ %14, %13 ], [ %4, %15 ]
  %18 = getelementptr inbounds nuw i8, ptr %0, i64 32
  %19 = load ptr, ptr %18, align 8
  %20 = tail call noundef nonnull align 8 dereferenceable(48) ptr @_ZN4llvm11raw_ostreamlsEPKv(ptr noundef nonnull align 8 dereferenceable(48) %.0.i.i, ptr noundef %19) #19
  %21 = getelementptr inbounds nuw i8, ptr %20, i64 24
  %22 = load ptr, ptr %21, align 8
  %23 = getelementptr inbounds nuw i8, ptr %20, i64 32
  %24 = load ptr, ptr %23, align 8
  %25 = icmp eq ptr %22, %24
  br i1 %25, label %26, label %28

26:                                               ; preds = %_ZN4llvm11raw_ostreamlsEPKc.exit
  %27 = tail call noundef nonnull align 8 dereferenceable(48) ptr @_ZN4llvm11raw_ostream5writeEPKcm(ptr noundef nonnull align 8 dereferenceable(48) %20, ptr noundef nonnull @.str.48, i64 noundef 1) #19
  br label %_ZN4llvm11raw_ostreamlsEPKc.exit5

28:                                               ; preds = %_ZN4llvm11raw_ostreamlsEPKc.exit
  store i8 93, ptr %24, align 1
  %29 = load ptr, ptr %23, align 8
  %30 = getelementptr inbounds nuw i8, ptr %29, i64 1
  store ptr %30, ptr %23, align 8
  br label %_ZN4llvm11raw_ostreamlsEPKc.exit5

_ZN4llvm11raw_ostreamlsEPKc.exit5:                ; preds = %26, %28
  ret void
}